#include <math.h>
#include <stdio.h>
#include <stdlib.h>
#include <string.h>
#include <iostream>
using namespace std;

int main ()
{
    int k=0;
    cin>>k;
    for (int i=0;i<k;i++)
    {
        int m=0,n=0;
        cin>>m>>n;
        int mat[100][100]={0};
        int sum=0;
        for (int j=0;j<m;j++)
        for (int k=0;k<n;k++)
        {
            cin>>*(*(mat+j)+k);
            if((j==0)||(j==m-1)||(k==0)||(k==n-1))//????????????????????? 
            {
                sum=sum+*(*(mat+j)+k);
            }
        }
        cout<<sum<<endl;
        
    }
   
    return 0; 
}
